	.text
	.file	"foo.c"
	.globl	hello                   # -- Begin function hello
	.p2align	4, 0x90
	.type	hello,@function
hello:                                  # @hello
	.cfi_startproc
# %bb.0:
	pushq	%rbp
	.cfi_def_cfa_offset 16
	.cfi_offset %rbp, -16
	movq	%rsp, %rbp
	.cfi_def_cfa_register %rbp
	movl	$.L.str, %edi
	xorl	%eax, %eax
	callq	printf
	popq	%rbp
	.cfi_def_cfa %rsp, 8
	retq
.Lfunc_end0:
	.size	hello, .Lfunc_end0-hello
	.cfi_endproc
                                        # -- End function
	.globl	main                    # -- Begin function main
	.p2align	4, 0x90
	.type	main,@function
main:                                   # @main
	.cfi_startproc
# %bb.0:
	pushq	%rbp
	.cfi_def_cfa_offset 16
	.cfi_offset %rbp, -16
	movq	%rsp, %rbp
	.cfi_def_cfa_register %rbp
	subq	$16, %rsp
	movl	$0, -8(%rbp)
	leaq	-4(%rbp), %rsi
	movl	$.L.str.1, %edi
	xorl	%eax, %eax
	callq	__isoc99_scanf
	cmpl	$3, -4(%rbp)
	jl	.LBB1_2
# %bb.1:
	callq	hello
	jmp	.LBB1_3
.LBB1_2:
	movl	$.L.str.2, %edi
	xorl	%eax, %eax
	callq	printf
.LBB1_3:
	xorl	%eax, %eax
	addq	$16, %rsp
	popq	%rbp
	.cfi_def_cfa %rsp, 8
	retq
.Lfunc_end1:
	.size	main, .Lfunc_end1-main
	.cfi_endproc
                                        # -- End function
	.globl	print                   # -- Begin function print
	.p2align	4, 0x90
	.type	print,@function
print:                                  # @print
	.cfi_startproc
# %bb.0:
	pushq	%rbp
	.cfi_def_cfa_offset 16
	.cfi_offset %rbp, -16
	movq	%rsp, %rbp
	.cfi_def_cfa_register %rbp
	subq	$16, %rsp
	movq	%rdi, %rsi
	movq	%rdi, -8(%rbp)
	movl	$.L.str.3, %edi
	xorl	%eax, %eax
	callq	printf
	addq	$16, %rsp
	popq	%rbp
	.cfi_def_cfa %rsp, 8
	retq
.Lfunc_end2:
	.size	print, .Lfunc_end2-print
	.cfi_endproc
                                        # -- End function
	.type	.L.str,@object          # @.str
	.section	.rodata.str1.1,"aMS",@progbits,1
.L.str:
	.asciz	"hello world\n"
	.size	.L.str, 13

	.type	.L.str.1,@object        # @.str.1
.L.str.1:
	.asciz	"%d"
	.size	.L.str.1, 3

	.type	.L.str.2,@object        # @.str.2
.L.str.2:
	.asciz	"hello world_2\n"
	.size	.L.str.2, 15

	.type	.L.str.3,@object        # @.str.3
.L.str.3:
	.asciz	"%s\n"
	.size	.L.str.3, 4

	.ident	"clang version 10.0.0-4ubuntu1 "
	.section	".note.GNU-stack","",@progbits
